target datalayout = "e-m:e-p270:32:32-p271:32:32-p272:64:64-i64:64-i128:128-f80:128-n8:16:32:64-S128"
target triple = "x86_64-pc-linux-gnu"

%struct.oidset = type { %struct.kh_oid_set }
%struct.kh_oid_set = type { i32, i32, i32, i32, ptr, ptr, ptr }
%struct.rev_info = type { ptr, %struct.object_array, ptr, %struct.object_array, %struct.rev_cmdline_info, %struct.list_objects_filter_options, %struct.ref_exclusions, ptr, ptr, ptr, %struct.pathspec, i32, i32, i32, i32, i64, i32, i32, %struct.date_mode, i32, i32, i32, i32, ptr, i32, i32, ptr, ptr, i32, ptr, ptr, %struct.ident_split, ptr, i32, ptr, ptr, ptr, i32, i32, i32, ptr, %struct.grep_opt, ptr, i32, i32, i64, i64, i64, i32, i32, ptr, ptr, ptr, %struct.diff_options, %struct.diff_options, ptr, %struct.decoration, %struct.decoration, %struct.decoration, %struct.display_notes_opt, ptr, ptr, ptr, ptr, ptr, i32, ptr, i32, i32, i32, %struct.decoration, ptr, ptr, ptr, ptr, ptr, ptr, ptr, i32, ptr, i32, ptr, %struct.oidset }
%struct.object_array = type { i32, i32, ptr }
%struct.rev_cmdline_info = type { i32, i32, ptr }
%struct.list_objects_filter_options = type { %struct.strbuf, i32, i8, ptr, i64, i64, i32, i64, i64, ptr }
%struct.strbuf = type { i64, i64, ptr }
%struct.ref_exclusions = type { %struct.string_list, %struct.strvec, i8 }
%struct.string_list = type { ptr, i64, i64, i8, ptr }
%struct.strvec = type { ptr, i64, i64 }
%struct.pathspec = type { i32, i8, i32, i32, ptr }
%struct.date_mode = type { i32, i32, ptr }
%struct.ident_split = type { ptr, ptr, ptr, ptr, ptr, ptr, ptr, ptr }
%struct.grep_opt = type { ptr, ptr, ptr, ptr, ptr, ptr, i32, i32, i32, i32, i32, i32, i32, i32, i32, i32, i32, i32, i32, i32, i32, i32, i32, i32, i32, i32, i32, i32, i32, i32, i32, i32, [9 x [75 x i8]], i32, i32, i32, i32, i32, i32, i32, ptr, ptr, ptr }
%struct.diff_options = type { ptr, ptr, i32, i32, ptr, i32, ptr, i64, i64, ptr, ptr, ptr, ptr, %struct.diff_flags, i32, i32, i32, i32, i32, i32, i32, i32, i32, i32, i32, i32, i32, i32, i32, i32, i32, i32, i32, i32, i32, i32, ptr, i32, ptr, i32, i32, ptr, i64, i64, i32, i32, i32, i32, ptr, i32, i32, ptr, i32, i32, ptr, ptr, i32, [3 x i8], %struct.pathspec, ptr, ptr, ptr, ptr, ptr, ptr, ptr, ptr, i32, ptr, i32, i32, ptr, ptr, i32 }
%struct.diff_flags = type { i32, i32, i32, i32, i32, i32, i32, i32, i32, i32, i32, i32, i32, i32, i32, i32, i32, i32, i32, i32, i32, i32, i32, i32, i32, i32, i32, i32, i32, i32, i32, i32, i32, i32, i32 }
%struct.display_notes_opt = type { i32, %struct.string_list }
%struct.decoration = type { ptr, i32, i32, ptr }
%struct.commit = type { %struct.object, i64, ptr, ptr, i32 }
%struct.object = type { i32, %struct.object_id }
%struct.object_id = type { [32 x i8], i32 }
%struct.tree = type { %struct.object, ptr, i64 }
%struct.traversal_context = type { ptr, ptr, ptr, ptr, ptr, i32 }

@the_repository = external global ptr, align 8
@.str = private unnamed_addr constant [39 x i8] c"unable to load root tree for commit %s\00", align 1
@.str.1 = private unnamed_addr constant [1 x i8] zeroinitializer, align 1

; Function Attrs: nounwind uwtable
define internal void @show_commit(ptr noundef %0, ptr noundef %1) #0 {
  %3 = alloca ptr, align 8
  %4 = alloca ptr, align 8
  store ptr %0, ptr %3, align 8, !tbaa !99
  store ptr %1, ptr %4, align 8, !tbaa !66
  %5 = load ptr, ptr %3, align 8, !tbaa !99
  %6 = getelementptr inbounds nuw %struct.traversal_context, ptr %5, i32 0, i32 2
  %7 = load ptr, ptr %6, align 8, !tbaa !94
  %8 = icmp ne ptr %7, null
  br i1 %8, label %10, label %9

9:                                                ; preds = %2
  br label %18

10:                                               ; preds = %2
  %11 = load ptr, ptr %3, align 8, !tbaa !99
  %12 = getelementptr inbounds nuw %struct.traversal_context, ptr %11, i32 0, i32 2
  %13 = load ptr, ptr %12, align 8, !tbaa !94
  %14 = load ptr, ptr %4, align 8, !tbaa !66
  %15 = load ptr, ptr %3, align 8, !tbaa !99
  %16 = getelementptr inbounds nuw %struct.traversal_context, ptr %15, i32 0, i32 3
  %17 = load ptr, ptr %16, align 8, !tbaa !95
  call void %13(ptr noundef %14, ptr noundef %17)
  br label %18

18:                                               ; preds = %10, %9
  ret void
}

; Function Attrs: nounwind uwtable
define internal void @add_pending_tree(ptr noundef %0, ptr noundef %1) #0 {
  %3 = alloca ptr, align 8
  %4 = alloca ptr, align 8
  store ptr %0, ptr %3, align 8, !tbaa !4
  store ptr %1, ptr %4, align 8, !tbaa !68
  %5 = load ptr, ptr %3, align 8, !tbaa !4
  %6 = load ptr, ptr %4, align 8, !tbaa !68
  %7 = getelementptr inbounds nuw %struct.tree, ptr %6, i32 0, i32 0
  call void @add_pending_object(ptr noundef %5, ptr noundef %7, ptr noundef @.str.1)
  ret void
}

; Function Attrs: nounwind uwtable
define internal void @do_traverse(ptr noundef %0) #0 {
  %2 = alloca ptr, align 8
  %3 = alloca ptr, align 8
  %4 = alloca %struct.strbuf, align 8
  %5 = alloca i32, align 4
  %6 = alloca ptr, align 8
  store ptr %0, ptr %2, align 8, !tbaa !99
  call void @llvm.lifetime.start.p0(i64 8, ptr %3) #8
  call void @llvm.lifetime.start.p0(i64 24, ptr %4) #8
  call void @strbuf_init(ptr noundef %4, i64 noundef 4096)
  br label %7

7:                                                ; preds = %128, %1
  %8 = load ptr, ptr %2, align 8, !tbaa !99
  %9 = getelementptr inbounds nuw %struct.traversal_context, ptr %8, i32 0, i32 0
  %10 = load ptr, ptr %9, align 8, !tbaa !90
  %11 = call ptr @get_revision(ptr noundef %10)
  store ptr %11, ptr %3, align 8, !tbaa !66
  %12 = icmp ne ptr %11, null
  br i1 %12, label %13, label %129

13:                                               ; preds = %7
  call void @llvm.lifetime.start.p0(i64 4, ptr %5) #8
  %14 = load ptr, ptr %2, align 8, !tbaa !99
  %15 = getelementptr inbounds nuw %struct.traversal_context, ptr %14, i32 0, i32 0
  %16 = load ptr, ptr %15, align 8, !tbaa !90
  %17 = getelementptr inbounds nuw %struct.rev_info, ptr %16, i32 0, i32 2
  %18 = load ptr, ptr %17, align 8, !tbaa !73
  %19 = load ptr, ptr %3, align 8, !tbaa !66
  %20 = getelementptr inbounds nuw %struct.commit, ptr %19, i32 0, i32 0
  %21 = load ptr, ptr %2, align 8, !tbaa !99
  %22 = getelementptr inbounds nuw %struct.traversal_context, ptr %21, i32 0, i32 4
  %23 = load ptr, ptr %22, align 8, !tbaa !96
  %24 = call i32 @list_objects_filter__filter_object(ptr noundef %18, i32 noundef 0, ptr noundef %20, ptr noundef null, ptr noundef null, ptr noundef %23)
  store i32 %24, ptr %5, align 4, !tbaa !10
  %25 = load ptr, ptr %2, align 8, !tbaa !99
  %26 = getelementptr inbounds nuw %struct.traversal_context, ptr %25, i32 0, i32 0
  %27 = load ptr, ptr %26, align 8, !tbaa !90
  %28 = getelementptr inbounds nuw %struct.rev_info, ptr %27, i32 0, i32 15
  %29 = load i64, ptr %28, align 8
  %30 = lshr i64 %29, 14
  %31 = and i64 %30, 1
  %32 = trunc i64 %31 to i32
  %33 = icmp ne i32 %32, 0
  br i1 %33, label %35, label %34

34:                                               ; preds = %13
  br label %94

35:                                               ; preds = %13
  %36 = load ptr, ptr %2, align 8, !tbaa !99
  %37 = getelementptr inbounds nuw %struct.traversal_context, ptr %36, i32 0, i32 0
  %38 = load ptr, ptr %37, align 8, !tbaa !90
  %39 = getelementptr inbounds nuw %struct.rev_info, ptr %38, i32 0, i32 15
  %40 = load i64, ptr %39, align 8
  %41 = lshr i64 %40, 42
  %42 = and i64 %41, 1
  %43 = trunc i64 %42 to i32
  %44 = icmp ne i32 %43, 0
  br i1 %44, label %45, label %56

45:                                               ; preds = %35
  %46 = load ptr, ptr %2, align 8, !tbaa !99
  %47 = getelementptr inbounds nuw %struct.traversal_context, ptr %46, i32 0, i32 0
  %48 = load ptr, ptr %47, align 8, !tbaa !90
  %49 = getelementptr inbounds nuw %struct.rev_info, ptr %48, i32 0, i32 82
  %50 = load ptr, ptr %3, align 8, !tbaa !66
  %51 = getelementptr inbounds nuw %struct.commit, ptr %50, i32 0, i32 0
  %52 = getelementptr inbounds nuw %struct.object, ptr %51, i32 0, i32 1
  %53 = call i32 @oidset_contains(ptr noundef %49, ptr noundef %52)
  %54 = icmp ne i32 %53, 0
  br i1 %54, label %55, label %56

55:                                               ; preds = %45
  br label %93

56:                                               ; preds = %45, %35
  %57 = load ptr, ptr @the_repository, align 8, !tbaa !67
  %58 = load ptr, ptr %3, align 8, !tbaa !66
  %59 = call ptr @repo_get_commit_tree(ptr noundef %57, ptr noundef %58)
  %60 = icmp ne ptr %59, null
  br i1 %60, label %61, label %79

61:                                               ; preds = %56
  call void @llvm.lifetime.start.p0(i64 8, ptr %6) #8
  %62 = load ptr, ptr @the_repository, align 8, !tbaa !67
  %63 = load ptr, ptr %3, align 8, !tbaa !66
  %64 = call ptr @repo_get_commit_tree(ptr noundef %62, ptr noundef %63)
  store ptr %64, ptr %6, align 8, !tbaa !68
  %65 = load ptr, ptr %6, align 8, !tbaa !68
  %66 = getelementptr inbounds nuw %struct.tree, ptr %65, i32 0, i32 0
  %67 = load i32, ptr %66, align 8
  %68 = lshr i32 %67, 4
  %69 = or i32 %68, 33554432
  %70 = load i32, ptr %66, align 8
  %71 = and i32 %69, 268435455
  %72 = shl i32 %71, 4
  %73 = and i32 %70, 15
  %74 = or i32 %73, %72
  store i32 %74, ptr %66, align 8
  %75 = load ptr, ptr %2, align 8, !tbaa !99
  %76 = getelementptr inbounds nuw %struct.traversal_context, ptr %75, i32 0, i32 0
  %77 = load ptr, ptr %76, align 8, !tbaa !90
  %78 = load ptr, ptr %6, align 8, !tbaa !68
  call void @add_pending_tree(ptr noundef %77, ptr noundef %78)
  call void @llvm.lifetime.end.p0(i64 8, ptr %6) #8
  br label %92

79:                                               ; preds = %56
  %80 = load ptr, ptr %3, align 8, !tbaa !66
  %81 = getelementptr inbounds nuw %struct.commit, ptr %80, i32 0, i32 0
  %82 = load i32, ptr %81, align 8
  %83 = and i32 %82, 1
  %84 = icmp ne i32 %83, 0
  br i1 %84, label %85, label %91

85:                                               ; preds = %79
  %86 = call ptr @_(ptr noundef @.str)
  %87 = load ptr, ptr %3, align 8, !tbaa !66
  %88 = getelementptr inbounds nuw %struct.commit, ptr %87, i32 0, i32 0
  %89 = getelementptr inbounds nuw %struct.object, ptr %88, i32 0, i32 1
  %90 = call ptr @oid_to_hex(ptr noundef %89)
  call void (ptr, ...) @die(ptr noundef %86, ptr noundef %90) #9
  unreachable

91:                                               ; preds = %79
  br label %92

92:                                               ; preds = %91, %61
  br label %93

93:                                               ; preds = %92, %55
  br label %94

94:                                               ; preds = %93, %34
  %95 = load i32, ptr %5, align 4, !tbaa !10
  %96 = and i32 %95, 1
  %97 = icmp ne i32 %96, 0
  br i1 %97, label %98, label %109

98:                                               ; preds = %94
  %99 = load ptr, ptr %3, align 8, !tbaa !66
  %100 = getelementptr inbounds nuw %struct.commit, ptr %99, i32 0, i32 0
  %101 = load i32, ptr %100, align 8
  %102 = lshr i32 %101, 4
  %103 = or i32 %102, 1
  %104 = load i32, ptr %100, align 8
  %105 = and i32 %103, 268435455
  %106 = shl i32 %105, 4
  %107 = and i32 %104, 15
  %108 = or i32 %107, %106
  store i32 %108, ptr %100, align 8
  br label %109

109:                                              ; preds = %98, %94
  %110 = load i32, ptr %5, align 4, !tbaa !10
  %111 = and i32 %110, 2
  %112 = icmp ne i32 %111, 0
  br i1 %112, label %113, label %116

113:                                              ; preds = %109
  %114 = load ptr, ptr %2, align 8, !tbaa !99
  %115 = load ptr, ptr %3, align 8, !tbaa !66
  call void @show_commit(ptr noundef %114, ptr noundef %115)
  br label %116

116:                                              ; preds = %113, %109
  %117 = load ptr, ptr %2, align 8, !tbaa !99
  %118 = getelementptr inbounds nuw %struct.traversal_context, ptr %117, i32 0, i32 0
  %119 = load ptr, ptr %118, align 8, !tbaa !90
  %120 = getelementptr inbounds nuw %struct.rev_info, ptr %119, i32 0, i32 15
  %121 = load i64, ptr %120, align 8
  %122 = lshr i64 %121, 41
  %123 = and i64 %122, 1
  %124 = trunc i64 %123 to i32
  %125 = icmp ne i32 %124, 0
  br i1 %125, label %126, label %128

126:                                              ; preds = %116
  %127 = load ptr, ptr %2, align 8, !tbaa !99
  call void @traverse_non_commits(ptr noundef %127, ptr noundef %4)
  br label %128

128:                                              ; preds = %126, %116
  call void @llvm.lifetime.end.p0(i64 4, ptr %5) #8
  br label %7, !llvm.loop !101

129:                                              ; preds = %7
  %130 = load ptr, ptr %2, align 8, !tbaa !99
  call void @traverse_non_commits(ptr noundef %130, ptr noundef %4)
  call void @strbuf_release(ptr noundef %4)
  call void @llvm.lifetime.end.p0(i64 24, ptr %4) #8
  call void @llvm.lifetime.end.p0(i64 8, ptr %3) #8
  ret void
}

; Function Attrs: nounwind uwtable
define dso_local void @traverse_commit_list_filtered(ptr noundef %0, ptr noundef %1, ptr noundef %2, ptr noundef %3, ptr noundef %4) #0 {
  %6 = alloca ptr, align 8
  %7 = alloca ptr, align 8
  %8 = alloca ptr, align 8
  %9 = alloca ptr, align 8
  %10 = alloca ptr, align 8
  %11 = alloca %struct.traversal_context, align 8
  store ptr %0, ptr %6, align 8, !tbaa !4
  store ptr %1, ptr %7, align 8, !tbaa !9
  store ptr %2, ptr %8, align 8, !tbaa !9
  store ptr %3, ptr %9, align 8, !tbaa !9
  store ptr %4, ptr %10, align 8, !tbaa !83
  call void @llvm.lifetime.start.p0(i64 48, ptr %11) #8
  %12 = getelementptr inbounds nuw %struct.traversal_context, ptr %11, i32 0, i32 0
  %13 = load ptr, ptr %6, align 8, !tbaa !4
  store ptr %13, ptr %12, align 8, !tbaa !90
  %14 = getelementptr inbounds nuw %struct.traversal_context, ptr %11, i32 0, i32 1
  %15 = load ptr, ptr %8, align 8, !tbaa !9
  store ptr %15, ptr %14, align 8, !tbaa !93
  %16 = getelementptr inbounds nuw %struct.traversal_context, ptr %11, i32 0, i32 2
  %17 = load ptr, ptr %7, align 8, !tbaa !9
  store ptr %17, ptr %16, align 8, !tbaa !94
  %18 = getelementptr inbounds nuw %struct.traversal_context, ptr %11, i32 0, i32 3
  %19 = load ptr, ptr %9, align 8, !tbaa !9
  store ptr %19, ptr %18, align 8, !tbaa !95
  %20 = getelementptr inbounds nuw %struct.traversal_context, ptr %11, i32 0, i32 4
  store ptr null, ptr %20, align 8, !tbaa !96
  %21 = getelementptr inbounds nuw %struct.traversal_context, ptr %11, i32 0, i32 5
  store i32 0, ptr %21, align 8, !tbaa !97
  %22 = getelementptr i8, ptr %11, i64 44
  call void @llvm.memset.p0.i64(ptr align 4 %22, i8 0, i64 4, i1 false)
  %23 = load ptr, ptr %6, align 8, !tbaa !4
  %24 = getelementptr inbounds nuw %struct.rev_info, ptr %23, i32 0, i32 5
  %25 = getelementptr inbounds nuw %struct.list_objects_filter_options, ptr %24, i32 0, i32 1
  %26 = load i32, ptr %25, align 8, !tbaa !98
  %27 = icmp ne i32 %26, 0
  br i1 %27, label %28, label %34

28:                                               ; preds = %5
  %29 = load ptr, ptr %10, align 8, !tbaa !83
  %30 = load ptr, ptr %6, align 8, !tbaa !4
  %31 = getelementptr inbounds nuw %struct.rev_info, ptr %30, i32 0, i32 5
  %32 = call ptr @list_objects_filter__init(ptr noundef %29, ptr noundef %31)
  %33 = getelementptr inbounds nuw %struct.traversal_context, ptr %11, i32 0, i32 4
  store ptr %32, ptr %33, align 8, !tbaa !96
  br label %34

34:                                               ; preds = %28, %5
  call void @do_traverse(ptr noundef %11)
  %35 = getelementptr inbounds nuw %struct.traversal_context, ptr %11, i32 0, i32 4
  %36 = load ptr, ptr %35, align 8, !tbaa !96
  %37 = icmp ne ptr %36, null
  br i1 %37, label %38, label %41

38:                                               ; preds = %34
  %39 = getelementptr inbounds nuw %struct.traversal_context, ptr %11, i32 0, i32 4
  %40 = load ptr, ptr %39, align 8, !tbaa !96
  call void @list_objects_filter__free(ptr noundef %40)
  br label %41

41:                                               ; preds = %38, %34
  call void @llvm.lifetime.end.p0(i64 48, ptr %11) #8
  ret void
}