; Function Attrs: nounwind uwtable
define dso_local void @traverse_commit_list_filtered(ptr noundef %0, ptr noundef %1, ptr noundef %2, ptr noundef %3, ptr noundef %4) local_unnamed_addr #0 {
  %6 = alloca %struct.strbuf, align 8
  %7 = alloca %struct.traversal_context, align 8
  call void @llvm.lifetime.start.p0(i64 48, ptr nonnull %7) #9
  store ptr %0, ptr %7, align 8, !tbaa !74
  %8 = getelementptr inbounds nuw i8, ptr %7, i64 8
  store ptr %2, ptr %8, align 8, !tbaa !78
  %9 = getelementptr inbounds nuw i8, ptr %7, i64 16
  store ptr %1, ptr %9, align 8, !tbaa !79
  %10 = getelementptr inbounds nuw i8, ptr %7, i64 24
  store ptr %3, ptr %10, align 8, !tbaa !80
  %11 = getelementptr inbounds nuw i8, ptr %7, i64 32
  %12 = getelementptr inbounds nuw i8, ptr %0, i64 88
  call void @llvm.memset.p0.i64(ptr noundef nonnull align 8 dereferenceable(16) %11, i8 0, i64 16, i1 false)
  %13 = load i32, ptr %12, align 8, !tbaa !81
  %.not = icmp eq i32 %13, 0
  br i1 %.not, label %17, label %14

14:                                               ; preds = %5
  %15 = getelementptr inbounds nuw i8, ptr %0, i64 64
  %16 = tail call ptr @list_objects_filter__init(ptr noundef %4, ptr noundef nonnull %15) #9
  store ptr %16, ptr %11, align 8, !tbaa !82
  br label %17

17:                                               ; preds = %14, %5
  call void @llvm.lifetime.start.p0(i64 24, ptr nonnull %6) #9
  call void @strbuf_init(ptr noundef nonnull %6, i64 noundef 4096) #9
  %18 = call ptr @get_revision(ptr noundef nonnull %0) #9
  %.not31.i = icmp eq ptr %18, null
  br i1 %.not31.i, label %do_traverse.exit, label %.lr.ph.i

.lr.ph.i:                                         ; preds = %17, %66
  %19 = phi ptr [ %67, %66 ], [ %0, %17 ]
  %20 = phi ptr [ %68, %66 ], [ %18, %17 ]
  %21 = getelementptr inbounds nuw i8, ptr %19, i64 24
  %22 = load ptr, ptr %21, align 8, !tbaa !17
  %23 = load ptr, ptr %11, align 8, !tbaa !82
  %24 = call i32 @list_objects_filter__filter_object(ptr noundef %22, i32 noundef 0, ptr noundef nonnull %20, ptr noundef null, ptr noundef null, ptr noundef %23) #9
  %25 = getelementptr inbounds nuw i8, ptr %19, i64 288
  %26 = load i64, ptr %25, align 8
  %27 = and i64 %26, 16384
  %.not22.i = icmp eq i64 %27, 0
  br i1 %.not22.i, label %50, label %28

28:                                               ; preds = %.lr.ph.i
  %29 = and i64 %26, 4398046511104
  %.not23.i = icmp eq i64 %29, 0
  br i1 %.not23.i, label %34, label %30

30:                                               ; preds = %28
  %31 = getelementptr inbounds nuw i8, ptr %19, i64 2968
  %32 = getelementptr inbounds nuw i8, ptr %20, i64 4
  %33 = call i32 @oidset_contains(ptr noundef nonnull %31, ptr noundef nonnull %32) #9
  %.not24.i = icmp eq i32 %33, 0
  br i1 %.not24.i, label %34, label %50

34:                                               ; preds = %30, %28
  %35 = load ptr, ptr @the_repository, align 8, !tbaa !12
  %36 = call ptr @repo_get_commit_tree(ptr noundef %35, ptr noundef nonnull %20) #9
  %.not25.i = icmp eq ptr %36, null
  br i1 %.not25.i, label %43, label %37

37:                                               ; preds = %34
  %38 = load ptr, ptr @the_repository, align 8, !tbaa !12
  %39 = call ptr @repo_get_commit_tree(ptr noundef %38, ptr noundef nonnull %20) #9
  %40 = load i32, ptr %39, align 8
  %41 = or i32 %40, 536870912
  store i32 %41, ptr %39, align 8
  %42 = load ptr, ptr %7, align 8, !tbaa !74
  call void @add_pending_object(ptr noundef %42, ptr noundef nonnull %39, ptr noundef nonnull @.str.1) #9
  br label %50

43:                                               ; preds = %34
  %44 = load i32, ptr %20, align 8
  %45 = and i32 %44, 1
  %.not26.i = icmp eq i32 %45, 0
  br i1 %.not26.i, label %50, label %46

46:                                               ; preds = %43
  %47 = call fastcc ptr @_(ptr noundef nonnull @.str)
  %48 = getelementptr inbounds nuw i8, ptr %20, i64 4
  %49 = call ptr @oid_to_hex(ptr noundef nonnull %48) #9
  call void (ptr, ...) @die(ptr noundef %47, ptr noundef %49) #10
  unreachable

50:                                               ; preds = %43, %37, %30, %.lr.ph.i
  %51 = and i32 %24, 1
  %.not27.i = icmp eq i32 %51, 0
  br i1 %.not27.i, label %55, label %52

52:                                               ; preds = %50
  %53 = load i32, ptr %20, align 8
  %54 = or i32 %53, 16
  store i32 %54, ptr %20, align 8
  br label %55

55:                                               ; preds = %52, %50
  %56 = and i32 %24, 2
  %.not28.i = icmp eq i32 %56, 0
  br i1 %.not28.i, label %show_commit.exit.i, label %57

57:                                               ; preds = %55
  %58 = load ptr, ptr %9, align 8, !tbaa !79
  %.not.i.i = icmp eq ptr %58, null
  br i1 %.not.i.i, label %show_commit.exit.i, label %59

59:                                               ; preds = %57
  %60 = load ptr, ptr %10, align 8, !tbaa !80
  call void %58(ptr noundef nonnull %20, ptr noundef %60) #9
  br label %show_commit.exit.i

show_commit.exit.i:                               ; preds = %59, %57, %55
  %61 = load ptr, ptr %7, align 8, !tbaa !74
  %62 = getelementptr inbounds nuw i8, ptr %61, i64 288
  %63 = load i64, ptr %62, align 8
  %64 = and i64 %63, 2199023255552
  %.not29.i = icmp eq i64 %64, 0
  br i1 %.not29.i, label %66, label %65

65:                                               ; preds = %show_commit.exit.i
  call fastcc void @traverse_non_commits(ptr noundef nonnull %7, ptr noundef %6)
  %.pre.i = load ptr, ptr %7, align 8, !tbaa !74
  br label %66

66:                                               ; preds = %65, %show_commit.exit.i
  %67 = phi ptr [ %.pre.i, %65 ], [ %61, %show_commit.exit.i ]
  %68 = call ptr @get_revision(ptr noundef %67) #9
  %.not.i = icmp eq ptr %68, null
  br i1 %.not.i, label %do_traverse.exit, label %.lr.ph.i, !llvm.loop !83

do_traverse.exit:                                 ; preds = %66, %17
  call fastcc void @traverse_non_commits(ptr noundef nonnull %7, ptr noundef %6)
  call void @strbuf_release(ptr noundef nonnull %6) #9
  call void @llvm.lifetime.end.p0(i64 24, ptr nonnull %6) #9
  %69 = load ptr, ptr %11, align 8, !tbaa !82
  %.not7 = icmp eq ptr %69, null
  br i1 %.not7, label %71, label %70

70:                                               ; preds = %do_traverse.exit
  call void @list_objects_filter__free(ptr noundef nonnull %69) #9
  br label %71

71:                                               ; preds = %70, %do_traverse.exit
  call void @llvm.lifetime.end.p0(i64 48, ptr nonnull %7) #9
  ret void
}